target datalayout = "e-m:e-p270:32:32-p271:32:32-p272:64:64-i64:64-i128:128-f80:128-n8:16:32:64-S128"
target triple = "x86_64-pc-linux-gnu"

; Function Attrs: nounwind uwtable
define internal i32 @pix_sum_c(ptr noundef %0, i64 noundef %1) #1 {
  %3 = alloca ptr, align 8
  %4 = alloca i64, align 8
  %5 = alloca i32, align 4
  %6 = alloca i32, align 4
  %7 = alloca i32, align 4
  store ptr %0, ptr %3, align 8, !tbaa !27
  store i64 %1, ptr %4, align 8, !tbaa !29
  call void @llvm.lifetime.start.p0(i64 4, ptr %5) #7
  store i32 0, ptr %5, align 4, !tbaa !20
  call void @llvm.lifetime.start.p0(i64 4, ptr %6) #7
  call void @llvm.lifetime.start.p0(i64 4, ptr %7) #7
  store i32 0, ptr %6, align 4, !tbaa !20
  br label %8

8:                                                ; preds = %74, %2
  %9 = load i32, ptr %6, align 4, !tbaa !20
  %10 = icmp slt i32 %9, 16
  br i1 %10, label %11, label %77

11:                                               ; preds = %8
  store i32 0, ptr %7, align 4, !tbaa !20
  br label %12

12:                                               ; preds = %66, %11
  %13 = load i32, ptr %7, align 4, !tbaa !20
  %14 = icmp slt i32 %13, 16
  br i1 %14, label %15, label %69

15:                                               ; preds = %12
  %16 = load ptr, ptr %3, align 8, !tbaa !27
  %17 = getelementptr inbounds i8, ptr %16, i64 0
  %18 = load i8, ptr %17, align 1, !tbaa !31
  %19 = zext i8 %18 to i32
  %20 = load i32, ptr %5, align 4, !tbaa !20
  %21 = add nsw i32 %20, %19
  store i32 %21, ptr %5, align 4, !tbaa !20
  %22 = load ptr, ptr %3, align 8, !tbaa !27
  %23 = getelementptr inbounds i8, ptr %22, i64 1
  %24 = load i8, ptr %23, align 1, !tbaa !31
  %25 = zext i8 %24 to i32
  %26 = load i32, ptr %5, align 4, !tbaa !20
  %27 = add nsw i32 %26, %25
  store i32 %27, ptr %5, align 4, !tbaa !20
  %28 = load ptr, ptr %3, align 8, !tbaa !27
  %29 = getelementptr inbounds i8, ptr %28, i64 2
  %30 = load i8, ptr %29, align 1, !tbaa !31
  %31 = zext i8 %30 to i32
  %32 = load i32, ptr %5, align 4, !tbaa !20
  %33 = add nsw i32 %32, %31
  store i32 %33, ptr %5, align 4, !tbaa !20
  %34 = load ptr, ptr %3, align 8, !tbaa !27
  %35 = getelementptr inbounds i8, ptr %34, i64 3
  %36 = load i8, ptr %35, align 1, !tbaa !31
  %37 = zext i8 %36 to i32
  %38 = load i32, ptr %5, align 4, !tbaa !20
  %39 = add nsw i32 %38, %37
  store i32 %39, ptr %5, align 4, !tbaa !20
  %40 = load ptr, ptr %3, align 8, !tbaa !27
  %41 = getelementptr inbounds i8, ptr %40, i64 4
  %42 = load i8, ptr %41, align 1, !tbaa !31
  %43 = zext i8 %42 to i32
  %44 = load i32, ptr %5, align 4, !tbaa !20
  %45 = add nsw i32 %44, %43
  store i32 %45, ptr %5, align 4, !tbaa !20
  %46 = load ptr, ptr %3, align 8, !tbaa !27
  %47 = getelementptr inbounds i8, ptr %46, i64 5
  %48 = load i8, ptr %47, align 1, !tbaa !31
  %49 = zext i8 %48 to i32
  %50 = load i32, ptr %5, align 4, !tbaa !20
  %51 = add nsw i32 %50, %49
  store i32 %51, ptr %5, align 4, !tbaa !20
  %52 = load ptr, ptr %3, align 8, !tbaa !27
  %53 = getelementptr inbounds i8, ptr %52, i64 6
  %54 = load i8, ptr %53, align 1, !tbaa !31
  %55 = zext i8 %54 to i32
  %56 = load i32, ptr %5, align 4, !tbaa !20
  %57 = add nsw i32 %56, %55
  store i32 %57, ptr %5, align 4, !tbaa !20
  %58 = load ptr, ptr %3, align 8, !tbaa !27
  %59 = getelementptr inbounds i8, ptr %58, i64 7
  %60 = load i8, ptr %59, align 1, !tbaa !31
  %61 = zext i8 %60 to i32
  %62 = load i32, ptr %5, align 4, !tbaa !20
  %63 = add nsw i32 %62, %61
  store i32 %63, ptr %5, align 4, !tbaa !20
  %64 = load ptr, ptr %3, align 8, !tbaa !27
  %65 = getelementptr inbounds i8, ptr %64, i64 8
  store ptr %65, ptr %3, align 8, !tbaa !27
  br label %66

66:                                               ; preds = %15
  %67 = load i32, ptr %7, align 4, !tbaa !20
  %68 = add nsw i32 %67, 8
  store i32 %68, ptr %7, align 4, !tbaa !20
  br label %12, !llvm.loop !40

69:                                               ; preds = %12
  %70 = load i64, ptr %4, align 8, !tbaa !29
  %71 = sub nsw i64 %70, 16
  %72 = load ptr, ptr %3, align 8, !tbaa !27
  %73 = getelementptr inbounds i8, ptr %72, i64 %71
  store ptr %73, ptr %3, align 8, !tbaa !27
  br label %74

74:                                               ; preds = %69
  %75 = load i32, ptr %6, align 4, !tbaa !20
  %76 = add nsw i32 %75, 1
  store i32 %76, ptr %6, align 4, !tbaa !20
  br label %8, !llvm.loop !41

77:                                               ; preds = %8
  %78 = load i32, ptr %5, align 4, !tbaa !20
  call void @llvm.lifetime.end.p0(i64 4, ptr %7) #7
  call void @llvm.lifetime.end.p0(i64 4, ptr %6) #7
  call void @llvm.lifetime.end.p0(i64 4, ptr %5) #7
  ret i32 %78
}