; Function Attrs: nofree norecurse nosync nounwind memory(argmem: read) uwtable
define internal i32 @pix_sum_c(ptr noundef readonly captures(none) %0, i64 noundef %1) #1 {
  br label %.preheader

.preheader:                                       ; preds = %2, %37
  %.02332 = phi i32 [ 0, %2 ], [ %40, %37 ]
  %.02431 = phi i32 [ 0, %2 ], [ %35, %37 ]
  %.02530 = phi ptr [ %0, %2 ], [ %39, %37 ]
  br label %3

3:                                                ; preds = %.preheader, %3
  %4 = phi i1 [ true, %.preheader ], [ false, %3 ]
  %.128 = phi i32 [ %.02431, %.preheader ], [ %35, %3 ]
  %.12627 = phi ptr [ %.02530, %.preheader ], [ %36, %3 ]
  %5 = load i8, ptr %.12627, align 1, !tbaa !20
  %6 = zext i8 %5 to i32
  %7 = add nsw i32 %.128, %6
  %8 = getelementptr inbounds nuw i8, ptr %.12627, i64 1
  %9 = load i8, ptr %8, align 1, !tbaa !20
  %10 = zext i8 %9 to i32
  %11 = add nsw i32 %7, %10
  %12 = getelementptr inbounds nuw i8, ptr %.12627, i64 2
  %13 = load i8, ptr %12, align 1, !tbaa !20
  %14 = zext i8 %13 to i32
  %15 = add nsw i32 %11, %14
  %16 = getelementptr inbounds nuw i8, ptr %.12627, i64 3
  %17 = load i8, ptr %16, align 1, !tbaa !20
  %18 = zext i8 %17 to i32
  %19 = add nsw i32 %15, %18
  %20 = getelementptr inbounds nuw i8, ptr %.12627, i64 4
  %21 = load i8, ptr %20, align 1, !tbaa !20
  %22 = zext i8 %21 to i32
  %23 = add nsw i32 %19, %22
  %24 = getelementptr inbounds nuw i8, ptr %.12627, i64 5
  %25 = load i8, ptr %24, align 1, !tbaa !20
  %26 = zext i8 %25 to i32
  %27 = add nsw i32 %23, %26
  %28 = getelementptr inbounds nuw i8, ptr %.12627, i64 6
  %29 = load i8, ptr %28, align 1, !tbaa !20
  %30 = zext i8 %29 to i32
  %31 = add nsw i32 %27, %30
  %32 = getelementptr inbounds nuw i8, ptr %.12627, i64 7
  %33 = load i8, ptr %32, align 1, !tbaa !20
  %34 = zext i8 %33 to i32
  %35 = add nsw i32 %31, %34
  %36 = getelementptr inbounds nuw i8, ptr %.12627, i64 8
  br i1 %4, label %3, label %37, !llvm.loop !28

37:                                               ; preds = %3
  %scevgep = getelementptr i8, ptr %.02530, i64 16
  %38 = getelementptr i8, ptr %scevgep, i64 %1
  %39 = getelementptr i8, ptr %38, i64 -16
  %40 = add nuw nsw i32 %.02332, 1
  %exitcond.not = icmp eq i32 %40, 16
  br i1 %exitcond.not, label %41, label %.preheader, !llvm.loop !29

41:                                               ; preds = %37
  ret i32 %35
}